target datalayout = "e-m:e-p270:32:32-p271:32:32-p272:64:64-i64:64-i128:128-f80:128-n8:16:32:64-S128"
target triple = "x86_64-pc-linux-gnu"

%struct.stanza_st = type { ptr, ptr, i32, i32, i32, i32, i32, i32, [150 x %struct.pair_st], ptr, [32768 x i8] }
%struct.pair_st = type { ptr, ptr }

@.str = private unnamed_addr constant [34 x i8] c"../openssl/test/testutil/stanza.c\00", align 1

; Function Attrs: nounwind uwtable
define void @test_clearstanza(ptr noundef %0) #0 {
  %2 = alloca ptr, align 8
  %3 = alloca ptr, align 8
  %4 = alloca i32, align 4
  store ptr %0, ptr %2, align 8, !tbaa !3
  call void @llvm.lifetime.start.p0(i64 8, ptr %3) #6
  %5 = load ptr, ptr %2, align 8, !tbaa !3
  %6 = getelementptr inbounds nuw %struct.stanza_st, ptr %5, i32 0, i32 8
  %7 = getelementptr inbounds [150 x %struct.pair_st], ptr %6, i64 0, i64 0
  store ptr %7, ptr %3, align 8, !tbaa !18
  call void @llvm.lifetime.start.p0(i64 4, ptr %4) #6
  %8 = load ptr, ptr %2, align 8, !tbaa !3
  %9 = getelementptr inbounds nuw %struct.stanza_st, ptr %8, i32 0, i32 7
  %10 = load i32, ptr %9, align 4, !tbaa !20
  store i32 %10, ptr %4, align 4, !tbaa !37
  br label %11

11:                                               ; preds = %22, %1
  %12 = load i32, ptr %4, align 4, !tbaa !37
  %13 = add nsw i32 %12, -1
  store i32 %13, ptr %4, align 4, !tbaa !37
  %14 = icmp sge i32 %13, 0
  br i1 %14, label %15, label %25

15:                                               ; preds = %11
  %16 = load ptr, ptr %3, align 8, !tbaa !18
  %17 = getelementptr inbounds nuw %struct.pair_st, ptr %16, i32 0, i32 0
  %18 = load ptr, ptr %17, align 8, !tbaa !26
  call void @CRYPTO_free(ptr noundef %18, ptr noundef @.str, i32 noundef 153)
  %19 = load ptr, ptr %3, align 8, !tbaa !18
  %20 = getelementptr inbounds nuw %struct.pair_st, ptr %19, i32 0, i32 1
  %21 = load ptr, ptr %20, align 8, !tbaa !28
  call void @CRYPTO_free(ptr noundef %21, ptr noundef @.str, i32 noundef 154)
  br label %22

22:                                               ; preds = %15
  %23 = load ptr, ptr %3, align 8, !tbaa !18
  %24 = getelementptr inbounds nuw %struct.pair_st, ptr %23, i32 1
  store ptr %24, ptr %3, align 8, !tbaa !18
  br label %11, !llvm.loop !38

25:                                               ; preds = %11
  %26 = load ptr, ptr %2, align 8, !tbaa !3
  %27 = getelementptr inbounds nuw %struct.stanza_st, ptr %26, i32 0, i32 7
  store i32 0, ptr %27, align 4, !tbaa !20
  call void @llvm.lifetime.end.p0(i64 4, ptr %4) #6
  call void @llvm.lifetime.end.p0(i64 8, ptr %3) #6
  ret void
}