; Function Attrs: nounwind uwtable
define void @test_clearstanza(ptr noundef captures(none) %0) local_unnamed_addr #0 {
  %2 = getelementptr inbounds nuw i8, ptr %0, i64 36
  %3 = load i32, ptr %2, align 4, !tbaa !15
  %4 = icmp sgt i32 %3, 0
  br i1 %4, label %.lr.ph.preheader, label %._crit_edge

.lr.ph.preheader:                                 ; preds = %1
  %5 = getelementptr inbounds nuw i8, ptr %0, i64 40
  br label %.lr.ph

.lr.ph:                                           ; preds = %.lr.ph.preheader, %.lr.ph
  %.09 = phi i32 [ %6, %.lr.ph ], [ %3, %.lr.ph.preheader ]
  %.068 = phi ptr [ %10, %.lr.ph ], [ %5, %.lr.ph.preheader ]
  %6 = add nsw i32 %.09, -1
  %7 = load ptr, ptr %.068, align 8, !tbaa !29
  tail call void @CRYPTO_free(ptr noundef %7, ptr noundef nonnull @.str, i32 noundef 153) #6
  %8 = getelementptr inbounds nuw i8, ptr %.068, i64 8
  %9 = load ptr, ptr %8, align 8, !tbaa !31
  tail call void @CRYPTO_free(ptr noundef %9, ptr noundef nonnull @.str, i32 noundef 154) #6
  %10 = getelementptr inbounds nuw i8, ptr %.068, i64 16
  %11 = icmp samesign ugt i32 %.09, 1
  br i1 %11, label %.lr.ph, label %._crit_edge, !llvm.loop !32

._crit_edge:                                      ; preds = %.lr.ph, %1
  store i32 0, ptr %2, align 4, !tbaa !15
  ret void
}